target datalayout = "e-m:e-p270:32:32-p271:32:32-p272:64:64-i64:64-i128:128-f80:128-n8:16:32:64-S128"
target triple = "x86_64-pc-linux-gnu"

%struct.AVFilterContext = type { ptr, ptr, ptr, ptr, ptr, i32, ptr, ptr, i32, ptr, ptr, i32, i32, ptr, ptr, ptr, ptr, i32, ptr, i32, i32 }
%struct.AudioCrossoverContext = type { ptr, ptr, ptr, i32, float, i32, i32, i32, i32, i32, i32, [16 x float], [17 x float], [17 x [20 x %struct.BiquadCoeffs]], [17 x [20 x %struct.BiquadCoeffs]], [17 x [20 x %struct.BiquadCoeffs]], ptr, [17 x ptr], ptr, ptr }
%struct.BiquadCoeffs = type { [5 x double], [5 x float] }

@query_formats.auto_sample_fmts = internal constant [3 x i32] [i32 8, i32 9, i32 -1], align 4
@__const.query_formats.sample_fmts = private unnamed_addr constant [2 x i32] [i32 8, i32 -1], align 4

; Function Attrs: nounwind uwtable
define internal i32 @query_formats(ptr noundef %0, ptr noundef %1, ptr noundef %2) #1 {
  %4 = alloca i32, align 4
  %5 = alloca ptr, align 8
  %6 = alloca ptr, align 8
  %7 = alloca ptr, align 8
  %8 = alloca ptr, align 8
  %9 = alloca [2 x i32], align 4
  %10 = alloca ptr, align 8
  %11 = alloca i32, align 4
  %12 = alloca i32, align 4
  store ptr %0, ptr %5, align 8, !tbaa !4
  store ptr %1, ptr %6, align 8, !tbaa !41
  store ptr %2, ptr %7, align 8, !tbaa !41
  call void @llvm.lifetime.start.p0(i64 8, ptr %8) #9
  %13 = load ptr, ptr %5, align 8, !tbaa !4
  %14 = getelementptr inbounds nuw %struct.AVFilterContext, ptr %13, i32 0, i32 9
  %15 = load ptr, ptr %14, align 8, !tbaa !9
  store ptr %15, ptr %8, align 8, !tbaa !22
  call void @llvm.lifetime.start.p0(i64 8, ptr %9) #9
  call void @llvm.memcpy.p0.p0.i64(ptr align 4 %9, ptr align 4 @__const.query_formats.sample_fmts, i64 8, i1 false)
  call void @llvm.lifetime.start.p0(i64 8, ptr %10) #9
  %16 = getelementptr inbounds [2 x i32], ptr %9, i64 0, i64 0
  store ptr %16, ptr %10, align 8, !tbaa !43
  call void @llvm.lifetime.start.p0(i64 4, ptr %11) #9
  %17 = load ptr, ptr %8, align 8, !tbaa !22
  %18 = getelementptr inbounds nuw %struct.AudioCrossoverContext, ptr %17, i32 0, i32 5
  %19 = load i32, ptr %18, align 8, !tbaa !44
  switch i32 %19, label %25 [
    i32 0, label %20
    i32 1, label %21
    i32 2, label %23
  ]

20:                                               ; preds = %3
  store ptr @query_formats.auto_sample_fmts, ptr %10, align 8, !tbaa !43
  br label %26

21:                                               ; preds = %3
  %22 = getelementptr inbounds [2 x i32], ptr %9, i64 0, i64 0
  store i32 8, ptr %22, align 4, !tbaa !25
  br label %26

23:                                               ; preds = %3
  %24 = getelementptr inbounds [2 x i32], ptr %9, i64 0, i64 0
  store i32 9, ptr %24, align 4, !tbaa !25
  br label %26

25:                                               ; preds = %3
  br label %26

26:                                               ; preds = %25, %23, %21, %20
  %27 = load ptr, ptr %5, align 8, !tbaa !4
  %28 = load ptr, ptr %6, align 8, !tbaa !41
  %29 = load ptr, ptr %7, align 8, !tbaa !41
  %30 = load ptr, ptr %10, align 8, !tbaa !43
  %31 = call i32 @ff_set_common_formats_from_list2(ptr noundef %27, ptr noundef %28, ptr noundef %29, ptr noundef %30)
  store i32 %31, ptr %11, align 4, !tbaa !25
  %32 = load i32, ptr %11, align 4, !tbaa !25
  %33 = icmp slt i32 %32, 0
  br i1 %33, label %34, label %36

34:                                               ; preds = %26
  %35 = load i32, ptr %11, align 4, !tbaa !25
  store i32 %35, ptr %4, align 4
  store i32 1, ptr %12, align 4
  br label %37

36:                                               ; preds = %26
  store i32 0, ptr %4, align 4
  store i32 1, ptr %12, align 4
  br label %37

37:                                               ; preds = %36, %34
  call void @llvm.lifetime.end.p0(i64 4, ptr %11) #9
  call void @llvm.lifetime.end.p0(i64 8, ptr %10) #9
  call void @llvm.lifetime.end.p0(i64 8, ptr %9) #9
  call void @llvm.lifetime.end.p0(i64 8, ptr %8) #9
  %38 = load i32, ptr %4, align 4
  ret i32 %38
}