; Function Attrs: nounwind uwtable
define internal range(i32 -2147483648, 1) i32 @query_formats(ptr noundef %0, ptr noundef %1, ptr noundef %2) #1 {
  %4 = alloca [2 x i32], align 8
  %5 = getelementptr inbounds nuw i8, ptr %0, i64 72
  %6 = load ptr, ptr %5, align 8, !tbaa !4
  call void @llvm.lifetime.start.p0(i64 8, ptr nonnull %4) #8
  store i64 -4294967288, ptr %4, align 8
  %7 = getelementptr inbounds nuw i8, ptr %6, i64 32
  %8 = load i32, ptr %7, align 8, !tbaa !40
  switch i32 %8, label %12 [
    i32 0, label %9
    i32 1, label %10
    i32 2, label %11
  ]

9:                                                ; preds = %3
  br label %12

10:                                               ; preds = %3
  store i32 8, ptr %4, align 8, !tbaa !41
  br label %12

11:                                               ; preds = %3
  store i32 9, ptr %4, align 8, !tbaa !41
  br label %12

12:                                               ; preds = %3, %11, %10, %9
  %.08 = phi ptr [ %4, %3 ], [ %4, %11 ], [ %4, %10 ], [ @query_formats.auto_sample_fmts, %9 ]
  %13 = call i32 @ff_set_common_formats_from_list2(ptr noundef nonnull %0, ptr noundef %1, ptr noundef %2, ptr noundef nonnull %.08) #8
  %. = call i32 @llvm.smin.i32(i32 %13, i32 0)
  call void @llvm.lifetime.end.p0(i64 8, ptr nonnull %4) #8
  ret i32 %.
}